target datalayout = "e-m:e-p270:32:32-p271:32:32-p272:64:64-i64:64-i128:128-f80:128-n8:16:32:64-S128"
target triple = "x86_64-pc-linux-gnu"

%"class.std::vector.75" = type { %"struct.std::_Vector_base.76" }
%"struct.std::_Vector_base.76" = type { %"struct.std::_Vector_base<float, std::allocator<float>>::_Vector_impl" }
%"struct.std::_Vector_base<float, std::allocator<float>>::_Vector_impl" = type { %"struct.std::_Vector_base<float, std::allocator<float>>::_Vector_impl_data" }
%"struct.std::_Vector_base<float, std::allocator<float>>::_Vector_impl_data" = type { ptr, ptr, ptr }
%"class.std::vector.68" = type { %"struct.std::_Vector_base.69" }
%"struct.std::_Vector_base.69" = type { %"struct.std::_Vector_base<double, std::allocator<double>>::_Vector_impl" }
%"struct.std::_Vector_base<double, std::allocator<double>>::_Vector_impl" = type { %"struct.std::_Vector_base<double, std::allocator<double>>::_Vector_impl_data" }
%"struct.std::_Vector_base<double, std::allocator<double>>::_Vector_impl_data" = type { ptr, ptr, ptr }
%"class.gmx::ImdSession" = type { %"class.std::unique_ptr.146" }
%"class.std::unique_ptr.146" = type { %"struct.std::__uniq_ptr_data.147" }
%"struct.std::__uniq_ptr_data.147" = type { %"class.std::__uniq_ptr_impl.148" }
%"class.std::__uniq_ptr_impl.148" = type { %"class.std::tuple.149" }
%"class.std::tuple.149" = type { %"struct.std::_Tuple_impl.150" }
%"struct.std::_Tuple_impl.150" = type { %"struct.std::_Head_base.153" }
%"struct.std::_Head_base.153" = type { ptr }
%"class.gmx::ImdSession::Impl" = type { i8, ptr, i32, i32, ptr, ptr, i32, ptr, ptr, ptr, ptr, ptr, i32, i32, i32, i32, ptr, ptr, i32, i8, i8, i8, i8, i8, ptr, i32, ptr, ptr, i32, ptr, ptr, ptr, ptr, ptr, %struct.t_block, i32, ptr, ptr, ptr, ptr, ptr, ptr }
%struct.t_block = type { i32, ptr, i32 }
%"struct.gmx::IMDEnergyBlock" = type { i32, float, float, float, float, float, float, float, float, float }
%struct.gmx_enerdata_t = type { %"struct.std::array.279", %struct.gmx_grppairener_t, %"struct.gmx::EnumerationArray.281", %"struct.gmx::EnumerationArray.281", %class.ForeignLambdaTerms }
%"struct.std::array.279" = type { [95 x float] }
%struct.gmx_grppairener_t = type { i32, %"struct.gmx::EnumerationArray.280" }
%"struct.gmx::EnumerationArray.280" = type { [5 x %"class.std::vector.75"] }
%"struct.gmx::EnumerationArray.281" = type { [7 x double] }
%class.ForeignLambdaTerms = type <{ i32, [4 x i8], ptr, %"class.std::vector.68", %"class.std::vector.282", i8, [7 x i8] }>
%"class.std::vector.282" = type { %"struct.std::_Vector_base.283" }
%"struct.std::_Vector_base.283" = type { %"struct.std::_Vector_base<gmx::EnumerationArray<FreeEnergyPerturbationCouplingType, double>, std::allocator<gmx::EnumerationArray<FreeEnergyPerturbationCouplingType, double>>>::_Vector_impl" }
%"struct.std::_Vector_base<gmx::EnumerationArray<FreeEnergyPerturbationCouplingType, double>, std::allocator<gmx::EnumerationArray<FreeEnergyPerturbationCouplingType, double>>>::_Vector_impl" = type { %"struct.std::_Vector_base<gmx::EnumerationArray<FreeEnergyPerturbationCouplingType, double>, std::allocator<gmx::EnumerationArray<FreeEnergyPerturbationCouplingType, double>>>::_Vector_impl_data" }
%"struct.std::_Vector_base<gmx::EnumerationArray<FreeEnergyPerturbationCouplingType, double>, std::allocator<gmx::EnumerationArray<FreeEnergyPerturbationCouplingType, double>>>::_Vector_impl_data" = type { ptr, ptr, ptr }

; Function Attrs: mustprogress nounwind uwtable
define linkonce_odr noundef nonnull align 8 dereferenceable(8) ptr @_ZNSt10_Head_baseILm0EPN3gmx10ImdSession4ImplELb0EE7_M_headERKS4_(ptr noundef nonnull align 8 dereferenceable(8) %0) #3 comdat align 2 {
  %2 = alloca ptr, align 8
  store ptr %0, ptr %2, align 8, !tbaa !272
  %3 = load ptr, ptr %2, align 8, !tbaa !272
  %4 = getelementptr inbounds nuw %"struct.std::_Head_base.153", ptr %3, i32 0, i32 0
  ret ptr %4
}

; Function Attrs: mustprogress nounwind uwtable
define linkonce_odr noundef nonnull align 8 dereferenceable(8) ptr @_ZNSt11_Tuple_implILm0EJPN3gmx10ImdSession4ImplESt14default_deleteIS2_EEE7_M_headERKS6_(ptr noundef nonnull align 8 dereferenceable(8) %0) #3 comdat align 2 {
  %2 = alloca ptr, align 8
  store ptr %0, ptr %2, align 8, !tbaa !270
  %3 = load ptr, ptr %2, align 8, !tbaa !270
  %4 = call noundef nonnull align 8 dereferenceable(8) ptr @_ZNSt10_Head_baseILm0EPN3gmx10ImdSession4ImplELb0EE7_M_headERKS4_(ptr noundef nonnull align 8 dereferenceable(8) %3) #17
  ret ptr %4
}

; Function Attrs: mustprogress nounwind uwtable
define linkonce_odr noundef nonnull align 8 dereferenceable(8) ptr @_ZSt12__get_helperILm0EPN3gmx10ImdSession4ImplEJSt14default_deleteIS2_EEERKT0_RKSt11_Tuple_implIXT_EJS6_DpT1_EE(ptr noundef nonnull align 8 dereferenceable(8) %0) #3 comdat {
  %2 = alloca ptr, align 8
  store ptr %0, ptr %2, align 8, !tbaa !270
  %3 = load ptr, ptr %2, align 8, !tbaa !270
  %4 = call noundef nonnull align 8 dereferenceable(8) ptr @_ZNSt11_Tuple_implILm0EJPN3gmx10ImdSession4ImplESt14default_deleteIS2_EEE7_M_headERKS6_(ptr noundef nonnull align 8 dereferenceable(8) %3) #17
  ret ptr %4
}

; Function Attrs: mustprogress nounwind uwtable
define linkonce_odr noundef nonnull align 8 dereferenceable(8) ptr @_ZSt3getILm0EJPN3gmx10ImdSession4ImplESt14default_deleteIS2_EEERKNSt13tuple_elementIXT_ESt5tupleIJDpT0_EEE4typeERKSA_(ptr noundef nonnull align 8 dereferenceable(8) %0) #3 comdat {
  %2 = alloca ptr, align 8
  store ptr %0, ptr %2, align 8, !tbaa !268
  %3 = load ptr, ptr %2, align 8, !tbaa !268
  %4 = call noundef nonnull align 8 dereferenceable(8) ptr @_ZSt12__get_helperILm0EPN3gmx10ImdSession4ImplEJSt14default_deleteIS2_EEERKT0_RKSt11_Tuple_implIXT_EJS6_DpT1_EE(ptr noundef nonnull align 8 dereferenceable(8) %3) #17
  ret ptr %4
}

; Function Attrs: mustprogress nounwind uwtable
define linkonce_odr noundef ptr @_ZNKSt15__uniq_ptr_implIN3gmx10ImdSession4ImplESt14default_deleteIS2_EE6_M_ptrEv(ptr noundef nonnull align 8 dereferenceable(8) %0) #3 comdat align 2 {
  %2 = alloca ptr, align 8
  store ptr %0, ptr %2, align 8, !tbaa !264
  %3 = load ptr, ptr %2, align 8
  %4 = getelementptr inbounds nuw %"class.std::__uniq_ptr_impl.148", ptr %3, i32 0, i32 0
  %5 = call noundef nonnull align 8 dereferenceable(8) ptr @_ZSt3getILm0EJPN3gmx10ImdSession4ImplESt14default_deleteIS2_EEERKNSt13tuple_elementIXT_ESt5tupleIJDpT0_EEE4typeERKSA_(ptr noundef nonnull align 8 dereferenceable(8) %4) #17
  %6 = load ptr, ptr %5, align 8, !tbaa !266
  ret ptr %6
}

; Function Attrs: mustprogress nounwind uwtable
define linkonce_odr noundef nonnull align 4 dereferenceable(4) ptr @_ZNSt14__array_traitsIfLm95EE6_S_refERA95_Kfm(ptr noundef nonnull align 4 dereferenceable(380) %0, i64 noundef %1) #3 comdat align 2 {
  %3 = alloca ptr, align 8
  %4 = alloca i64, align 8
  store ptr %0, ptr %3, align 8, !tbaa !324
  store i64 %1, ptr %4, align 8, !tbaa !193
  %5 = load ptr, ptr %3, align 8, !tbaa !324
  %6 = load i64, ptr %4, align 8, !tbaa !193
  %7 = getelementptr inbounds nuw [95 x float], ptr %5, i64 0, i64 %6
  ret ptr %7
}

; Function Attrs: mustprogress nounwind uwtable
define linkonce_odr noundef ptr @_ZNKSt10unique_ptrIN3gmx10ImdSession4ImplESt14default_deleteIS2_EE3getEv(ptr noundef nonnull align 8 dereferenceable(8) %0) #3 comdat align 2 {
  %2 = alloca ptr, align 8
  store ptr %0, ptr %2, align 8, !tbaa !260
  %3 = load ptr, ptr %2, align 8
  %4 = getelementptr inbounds nuw %"class.std::unique_ptr.146", ptr %3, i32 0, i32 0
  %5 = call noundef ptr @_ZNKSt15__uniq_ptr_implIN3gmx10ImdSession4ImplESt14default_deleteIS2_EE6_M_ptrEv(ptr noundef nonnull align 8 dereferenceable(8) %4) #17
  ret ptr %5
}

; Function Attrs: mustprogress nounwind uwtable
define linkonce_odr noundef nonnull align 4 dereferenceable(4) ptr @_ZNSt5arrayIfLm95EEixEm(ptr noundef nonnull align 4 dereferenceable(380) %0, i64 noundef %1) #3 comdat align 2 {
  %3 = alloca ptr, align 8
  %4 = alloca i64, align 8
  store ptr %0, ptr %3, align 8, !tbaa !576
  store i64 %1, ptr %4, align 8, !tbaa !193
  %5 = load ptr, ptr %3, align 8
  %6 = getelementptr inbounds nuw %"struct.std::array.279", ptr %5, i32 0, i32 0
  %7 = load i64, ptr %4, align 8, !tbaa !193
  %8 = call noundef nonnull align 4 dereferenceable(4) ptr @_ZNSt14__array_traitsIfLm95EE6_S_refERA95_Kfm(ptr noundef nonnull align 4 dereferenceable(380) %6, i64 noundef %7) #17
  ret ptr %8
}

; Function Attrs: mustprogress nounwind uwtable
define linkonce_odr noundef ptr @_ZNKSt10unique_ptrIN3gmx10ImdSession4ImplESt14default_deleteIS2_EEptEv(ptr noundef nonnull align 8 dereferenceable(8) %0) #3 comdat align 2 {
  %2 = alloca ptr, align 8
  store ptr %0, ptr %2, align 8, !tbaa !260
  %3 = load ptr, ptr %2, align 8
  %4 = call noundef ptr @_ZNKSt10unique_ptrIN3gmx10ImdSession4ImplESt14default_deleteIS2_EE3getEv(ptr noundef nonnull align 8 dereferenceable(8) %3) #17
  ret ptr %4
}

; Function Attrs: mustprogress nounwind uwtable
define void @_ZN3gmx10ImdSession16fillEnergyRecordElb(ptr noundef nonnull align 8 dereferenceable(8) %0, i64 noundef %1, i1 noundef zeroext %2) #3 align 2 {
  %4 = alloca ptr, align 8
  %5 = alloca i64, align 8
  %6 = alloca i8, align 1
  %7 = alloca ptr, align 8
  store ptr %0, ptr %4, align 8, !tbaa !244
  store i64 %1, ptr %5, align 8, !tbaa !193
  %8 = zext i1 %2 to i8
  store i8 %8, ptr %6, align 1, !tbaa !62
  %9 = load ptr, ptr %4, align 8
  %10 = getelementptr inbounds nuw %"class.gmx::ImdSession", ptr %9, i32 0, i32 0
  %11 = call noundef ptr @_ZNKSt10unique_ptrIN3gmx10ImdSession4ImplESt14default_deleteIS2_EEptEv(ptr noundef nonnull align 8 dereferenceable(8) %10) #17
  %12 = getelementptr inbounds nuw %"class.gmx::ImdSession::Impl", ptr %11, i32 0, i32 0
  %13 = load i8, ptr %12, align 8, !tbaa !248, !range !74, !noundef !75
  %14 = trunc i8 %13 to i1
  br i1 %14, label %15, label %21

15:                                               ; preds = %3
  %16 = getelementptr inbounds nuw %"class.gmx::ImdSession", ptr %9, i32 0, i32 0
  %17 = call noundef ptr @_ZNKSt10unique_ptrIN3gmx10ImdSession4ImplESt14default_deleteIS2_EEptEv(ptr noundef nonnull align 8 dereferenceable(8) %16) #17
  %18 = getelementptr inbounds nuw %"class.gmx::ImdSession::Impl", ptr %17, i32 0, i32 17
  %19 = load ptr, ptr %18, align 8, !tbaa !304
  %20 = icmp ne ptr %19, null
  br i1 %20, label %22, label %21

21:                                               ; preds = %15, %3
  br label %116

22:                                               ; preds = %15
  call void @llvm.lifetime.start.p0(i64 8, ptr %7) #17
  %23 = getelementptr inbounds nuw %"class.gmx::ImdSession", ptr %9, i32 0, i32 0
  %24 = call noundef ptr @_ZNKSt10unique_ptrIN3gmx10ImdSession4ImplESt14default_deleteIS2_EEptEv(ptr noundef nonnull align 8 dereferenceable(8) %23) #17
  %25 = getelementptr inbounds nuw %"class.gmx::ImdSession::Impl", ptr %24, i32 0, i32 24
  %26 = load ptr, ptr %25, align 8, !tbaa !386
  store ptr %26, ptr %7, align 8, !tbaa !313
  %27 = load i64, ptr %5, align 8, !tbaa !193
  %28 = trunc i64 %27 to i32
  %29 = load ptr, ptr %7, align 8, !tbaa !313
  %30 = getelementptr inbounds nuw %"struct.gmx::IMDEnergyBlock", ptr %29, i32 0, i32 0
  store i32 %28, ptr %30, align 4, !tbaa !565
  %31 = load i8, ptr %6, align 1, !tbaa !62, !range !74, !noundef !75
  %32 = trunc i8 %31 to i1
  br i1 %32, label %33, label %115

33:                                               ; preds = %22
  %34 = getelementptr inbounds nuw %"class.gmx::ImdSession", ptr %9, i32 0, i32 0
  %35 = call noundef ptr @_ZNKSt10unique_ptrIN3gmx10ImdSession4ImplESt14default_deleteIS2_EEptEv(ptr noundef nonnull align 8 dereferenceable(8) %34) #17
  %36 = getelementptr inbounds nuw %"class.gmx::ImdSession::Impl", ptr %35, i32 0, i32 41
  %37 = load ptr, ptr %36, align 8, !tbaa !392
  %38 = getelementptr inbounds nuw %struct.gmx_enerdata_t, ptr %37, i32 0, i32 0
  %39 = call noundef nonnull align 4 dereferenceable(4) ptr @_ZNSt5arrayIfLm95EEixEm(ptr noundef nonnull align 4 dereferenceable(380) %38, i64 noundef 83) #17
  %40 = load float, ptr %39, align 4, !tbaa !329
  %41 = load ptr, ptr %7, align 8, !tbaa !313
  %42 = getelementptr inbounds nuw %"struct.gmx::IMDEnergyBlock", ptr %41, i32 0, i32 1
  store float %40, ptr %42, align 4, !tbaa !567
  %43 = getelementptr inbounds nuw %"class.gmx::ImdSession", ptr %9, i32 0, i32 0
  %44 = call noundef ptr @_ZNKSt10unique_ptrIN3gmx10ImdSession4ImplESt14default_deleteIS2_EEptEv(ptr noundef nonnull align 8 dereferenceable(8) %43) #17
  %45 = getelementptr inbounds nuw %"class.gmx::ImdSession::Impl", ptr %44, i32 0, i32 41
  %46 = load ptr, ptr %45, align 8, !tbaa !392
  %47 = getelementptr inbounds nuw %struct.gmx_enerdata_t, ptr %46, i32 0, i32 0
  %48 = call noundef nonnull align 4 dereferenceable(4) ptr @_ZNSt5arrayIfLm95EEixEm(ptr noundef nonnull align 4 dereferenceable(380) %47, i64 noundef 79) #17
  %49 = load float, ptr %48, align 4, !tbaa !329
  %50 = load ptr, ptr %7, align 8, !tbaa !313
  %51 = getelementptr inbounds nuw %"struct.gmx::IMDEnergyBlock", ptr %50, i32 0, i32 3
  store float %49, ptr %51, align 4, !tbaa !568
  %52 = getelementptr inbounds nuw %"class.gmx::ImdSession", ptr %9, i32 0, i32 0
  %53 = call noundef ptr @_ZNKSt10unique_ptrIN3gmx10ImdSession4ImplESt14default_deleteIS2_EEptEv(ptr noundef nonnull align 8 dereferenceable(8) %52) #17
  %54 = getelementptr inbounds nuw %"class.gmx::ImdSession::Impl", ptr %53, i32 0, i32 41
  %55 = load ptr, ptr %54, align 8, !tbaa !392
  %56 = getelementptr inbounds nuw %struct.gmx_enerdata_t, ptr %55, i32 0, i32 0
  %57 = call noundef nonnull align 4 dereferenceable(4) ptr @_ZNSt5arrayIfLm95EEixEm(ptr noundef nonnull align 4 dereferenceable(380) %56, i64 noundef 81) #17
  %58 = load float, ptr %57, align 4, !tbaa !329
  %59 = load ptr, ptr %7, align 8, !tbaa !313
  %60 = getelementptr inbounds nuw %"struct.gmx::IMDEnergyBlock", ptr %59, i32 0, i32 2
  store float %58, ptr %60, align 4, !tbaa !569
  %61 = getelementptr inbounds nuw %"class.gmx::ImdSession", ptr %9, i32 0, i32 0
  %62 = call noundef ptr @_ZNKSt10unique_ptrIN3gmx10ImdSession4ImplESt14default_deleteIS2_EEptEv(ptr noundef nonnull align 8 dereferenceable(8) %61) #17
  %63 = getelementptr inbounds nuw %"class.gmx::ImdSession::Impl", ptr %62, i32 0, i32 41
  %64 = load ptr, ptr %63, align 8, !tbaa !392
  %65 = getelementptr inbounds nuw %struct.gmx_enerdata_t, ptr %64, i32 0, i32 0
  %66 = call noundef nonnull align 4 dereferenceable(4) ptr @_ZNSt5arrayIfLm95EEixEm(ptr noundef nonnull align 4 dereferenceable(380) %65, i64 noundef 0) #17
  %67 = load float, ptr %66, align 4, !tbaa !329
  %68 = load ptr, ptr %7, align 8, !tbaa !313
  %69 = getelementptr inbounds nuw %"struct.gmx::IMDEnergyBlock", ptr %68, i32 0, i32 6
  store float %67, ptr %69, align 4, !tbaa !570
  %70 = getelementptr inbounds nuw %"class.gmx::ImdSession", ptr %9, i32 0, i32 0
  %71 = call noundef ptr @_ZNKSt10unique_ptrIN3gmx10ImdSession4ImplESt14default_deleteIS2_EEptEv(ptr noundef nonnull align 8 dereferenceable(8) %70) #17
  %72 = getelementptr inbounds nuw %"class.gmx::ImdSession::Impl", ptr %71, i32 0, i32 41
  %73 = load ptr, ptr %72, align 8, !tbaa !392
  %74 = getelementptr inbounds nuw %struct.gmx_enerdata_t, ptr %73, i32 0, i32 0
  %75 = call noundef nonnull align 4 dereferenceable(4) ptr @_ZNSt5arrayIfLm95EEixEm(ptr noundef nonnull align 4 dereferenceable(380) %74, i64 noundef 10) #17
  %76 = load float, ptr %75, align 4, !tbaa !329
  %77 = load ptr, ptr %7, align 8, !tbaa !313
  %78 = getelementptr inbounds nuw %"struct.gmx::IMDEnergyBlock", ptr %77, i32 0, i32 7
  store float %76, ptr %78, align 4, !tbaa !571
  %79 = getelementptr inbounds nuw %"class.gmx::ImdSession", ptr %9, i32 0, i32 0
  %80 = call noundef ptr @_ZNKSt10unique_ptrIN3gmx10ImdSession4ImplESt14default_deleteIS2_EEptEv(ptr noundef nonnull align 8 dereferenceable(8) %79) #17
  %81 = getelementptr inbounds nuw %"class.gmx::ImdSession::Impl", ptr %80, i32 0, i32 41
  %82 = load ptr, ptr %81, align 8, !tbaa !392
  %83 = getelementptr inbounds nuw %struct.gmx_enerdata_t, ptr %82, i32 0, i32 0
  %84 = call noundef nonnull align 4 dereferenceable(4) ptr @_ZNSt5arrayIfLm95EEixEm(ptr noundef nonnull align 4 dereferenceable(380) %83, i64 noundef 19) #17
  %85 = load float, ptr %84, align 4, !tbaa !329
  %86 = load ptr, ptr %7, align 8, !tbaa !313
  %87 = getelementptr inbounds nuw %"struct.gmx::IMDEnergyBlock", ptr %86, i32 0, i32 8
  store float %85, ptr %87, align 4, !tbaa !572
  %88 = getelementptr inbounds nuw %"class.gmx::ImdSession", ptr %9, i32 0, i32 0
  %89 = call noundef ptr @_ZNKSt10unique_ptrIN3gmx10ImdSession4ImplESt14default_deleteIS2_EEptEv(ptr noundef nonnull align 8 dereferenceable(8) %88) #17
  %90 = getelementptr inbounds nuw %"class.gmx::ImdSession::Impl", ptr %89, i32 0, i32 41
  %91 = load ptr, ptr %90, align 8, !tbaa !392
  %92 = getelementptr inbounds nuw %struct.gmx_enerdata_t, ptr %91, i32 0, i32 0
  %93 = call noundef nonnull align 4 dereferenceable(4) ptr @_ZNSt5arrayIfLm95EEixEm(ptr noundef nonnull align 4 dereferenceable(380) %92, i64 noundef 24) #17
  %94 = load float, ptr %93, align 4, !tbaa !329
  %95 = load ptr, ptr %7, align 8, !tbaa !313
  %96 = getelementptr inbounds nuw %"struct.gmx::IMDEnergyBlock", ptr %95, i32 0, i32 9
  store float %94, ptr %96, align 4, !tbaa !573
  %97 = getelementptr inbounds nuw %"class.gmx::ImdSession", ptr %9, i32 0, i32 0
  %98 = call noundef ptr @_ZNKSt10unique_ptrIN3gmx10ImdSession4ImplESt14default_deleteIS2_EEptEv(ptr noundef nonnull align 8 dereferenceable(8) %97) #17
  %99 = getelementptr inbounds nuw %"class.gmx::ImdSession::Impl", ptr %98, i32 0, i32 41
  %100 = load ptr, ptr %99, align 8, !tbaa !392
  %101 = getelementptr inbounds nuw %struct.gmx_enerdata_t, ptr %100, i32 0, i32 0
  %102 = call noundef nonnull align 4 dereferenceable(4) ptr @_ZNSt5arrayIfLm95EEixEm(ptr noundef nonnull align 4 dereferenceable(380) %101, i64 noundef 37) #17
  %103 = load float, ptr %102, align 4, !tbaa !329
  %104 = load ptr, ptr %7, align 8, !tbaa !313
  %105 = getelementptr inbounds nuw %"struct.gmx::IMDEnergyBlock", ptr %104, i32 0, i32 4
  store float %103, ptr %105, align 4, !tbaa !574
  %106 = getelementptr inbounds nuw %"class.gmx::ImdSession", ptr %9, i32 0, i32 0
  %107 = call noundef ptr @_ZNKSt10unique_ptrIN3gmx10ImdSession4ImplESt14default_deleteIS2_EEptEv(ptr noundef nonnull align 8 dereferenceable(8) %106) #17
  %108 = getelementptr inbounds nuw %"class.gmx::ImdSession::Impl", ptr %107, i32 0, i32 41
  %109 = load ptr, ptr %108, align 8, !tbaa !392
  %110 = getelementptr inbounds nuw %struct.gmx_enerdata_t, ptr %109, i32 0, i32 0
  %111 = call noundef nonnull align 4 dereferenceable(4) ptr @_ZNSt5arrayIfLm95EEixEm(ptr noundef nonnull align 4 dereferenceable(380) %110, i64 noundef 42) #17
  %112 = load float, ptr %111, align 4, !tbaa !329
  %113 = load ptr, ptr %7, align 8, !tbaa !313
  %114 = getelementptr inbounds nuw %"struct.gmx::IMDEnergyBlock", ptr %113, i32 0, i32 5
  store float %112, ptr %114, align 4, !tbaa !575
  br label %115

115:                                              ; preds = %33, %22
  call void @llvm.lifetime.end.p0(i64 8, ptr %7) #17
  br label %116

116:                                              ; preds = %115, %21
  ret void
}