; Function Attrs: mustprogress nofree norecurse nosync nounwind willreturn memory(readwrite, inaccessiblemem: none) uwtable
define void @_ZN3gmx10ImdSession16fillEnergyRecordElb(ptr noundef nonnull readonly align 8 captures(none) dereferenceable(8) %0, i64 noundef %1, i1 noundef zeroext %2) local_unnamed_addr #20 align 2 {
  %4 = load ptr, ptr %0, align 8, !tbaa !127
  %5 = load i8, ptr %4, align 8, !tbaa !129, !range !138, !noundef !139
  %6 = trunc nuw i8 %5 to i1
  br i1 %6, label %7, label %43

7:                                                ; preds = %3
  %8 = getelementptr inbounds nuw i8, ptr %4, i64 112
  %9 = load ptr, ptr %8, align 8, !tbaa !154
  %.not = icmp eq ptr %9, null
  br i1 %.not, label %43, label %10

10:                                               ; preds = %7
  %11 = getelementptr inbounds nuw i8, ptr %4, i64 136
  %12 = load ptr, ptr %11, align 8, !tbaa !212
  %13 = trunc i64 %1 to i32
  store i32 %13, ptr %12, align 4, !tbaa !334
  br i1 %2, label %14, label %43

14:                                               ; preds = %10
  %15 = getelementptr inbounds nuw i8, ptr %4, i64 288
  %16 = load ptr, ptr %15, align 8, !tbaa !299
  %17 = getelementptr inbounds nuw i8, ptr %16, i64 332
  %18 = load float, ptr %17, align 4, !tbaa !175
  %19 = getelementptr inbounds nuw i8, ptr %12, i64 4
  store float %18, ptr %19, align 4, !tbaa !336
  %20 = getelementptr inbounds nuw i8, ptr %16, i64 316
  %21 = load float, ptr %20, align 4, !tbaa !175
  %22 = getelementptr inbounds nuw i8, ptr %12, i64 12
  store float %21, ptr %22, align 4, !tbaa !337
  %23 = getelementptr inbounds nuw i8, ptr %16, i64 324
  %24 = load float, ptr %23, align 4, !tbaa !175
  %25 = getelementptr inbounds nuw i8, ptr %12, i64 8
  store float %24, ptr %25, align 4, !tbaa !338
  %26 = load float, ptr %16, align 4, !tbaa !175
  %27 = getelementptr inbounds nuw i8, ptr %12, i64 24
  store float %26, ptr %27, align 4, !tbaa !339
  %28 = getelementptr inbounds nuw i8, ptr %16, i64 40
  %29 = load float, ptr %28, align 4, !tbaa !175
  %30 = getelementptr inbounds nuw i8, ptr %12, i64 28
  store float %29, ptr %30, align 4, !tbaa !340
  %31 = getelementptr inbounds nuw i8, ptr %16, i64 76
  %32 = load float, ptr %31, align 4, !tbaa !175
  %33 = getelementptr inbounds nuw i8, ptr %12, i64 32
  store float %32, ptr %33, align 4, !tbaa !341
  %34 = getelementptr inbounds nuw i8, ptr %16, i64 96
  %35 = load float, ptr %34, align 4, !tbaa !175
  %36 = getelementptr inbounds nuw i8, ptr %12, i64 36
  store float %35, ptr %36, align 4, !tbaa !342
  %37 = getelementptr inbounds nuw i8, ptr %16, i64 148
  %38 = load float, ptr %37, align 4, !tbaa !175
  %39 = getelementptr inbounds nuw i8, ptr %12, i64 16
  store float %38, ptr %39, align 4, !tbaa !343
  %40 = getelementptr inbounds nuw i8, ptr %16, i64 168
  %41 = load float, ptr %40, align 4, !tbaa !175
  %42 = getelementptr inbounds nuw i8, ptr %12, i64 20
  store float %41, ptr %42, align 4, !tbaa !344
  br label %43

43:                                               ; preds = %10, %14, %3, %7
  ret void
}